target datalayout = "e-m:e-p270:32:32-p271:32:32-p272:64:64-i64:64-i128:128-f80:128-n8:16:32:64-S128"
target triple = "x86_64-pc-linux-gnu"

%class.methodHandle = type { ptr, ptr }
%class.RetTable = type { ptr }
%class.GenerateOopMap = type { ptr, %class.methodHandle, %class.RetTable, i32, i32, i32, i32, i8, %class.Handle, i8, i8, i8, i32, ptr, ptr, i32, i32, ptr, i32, i32, %class.ResourceBitMap, i8, i8, ptr, ptr, i8, i32, ptr, ptr }
%class.Handle = type { ptr }
%class.ResourceBitMap = type { %class.GrowableBitMap }
%class.GrowableBitMap = type { %class.BitMap }
%class.BitMap = type { ptr, i64 }
%class.BasicBlock = type { i8, i32, i32, i32, i32, ptr, i32, i32 }

; Function Attrs: mustprogress nounwind uwtable
define hidden void @_ZN14GenerateOopMap19update_basic_blocksEiii(ptr noundef nonnull align 8 dereferenceable(176) %0, i32 noundef %1, i32 noundef %2, i32 noundef %3) #1 align 2 {
  %5 = alloca ptr, align 8
  %6 = alloca i32, align 4
  %7 = alloca i32, align 4
  %8 = alloca i32, align 4
  %9 = alloca i32, align 4
  store ptr %0, ptr %5, align 8
  store i32 %1, ptr %6, align 4
  store i32 %2, ptr %7, align 4
  store i32 %3, ptr %8, align 4
  %10 = load ptr, ptr %5, align 8
  %11 = getelementptr inbounds %class.GenerateOopMap, ptr %10, i32 0, i32 20
  %12 = load i32, ptr %8, align 4
  %13 = sext i32 %12 to i64
  call void @_ZN14GrowableBitMapI14ResourceBitMapE12reinitializeEmb(ptr noundef nonnull align 8 dereferenceable(16) %11, i64 noundef %13, i1 noundef zeroext true)
  store i32 0, ptr %9, align 4
  br label %14

14:                                               ; preds = %58, %4
  %15 = load i32, ptr %9, align 4
  %16 = getelementptr inbounds %class.GenerateOopMap, ptr %10, i32 0, i32 19
  %17 = load i32, ptr %16, align 4
  %18 = icmp slt i32 %15, %17
  br i1 %18, label %19, label %61

19:                                               ; preds = %14
  %20 = getelementptr inbounds %class.GenerateOopMap, ptr %10, i32 0, i32 17
  %21 = load ptr, ptr %20, align 8
  %22 = load i32, ptr %9, align 4
  %23 = sext i32 %22 to i64
  %24 = getelementptr inbounds %class.BasicBlock, ptr %21, i64 %23
  %25 = getelementptr inbounds %class.BasicBlock, ptr %24, i32 0, i32 1
  %26 = load i32, ptr %25, align 4
  %27 = load i32, ptr %6, align 4
  %28 = icmp sgt i32 %26, %27
  br i1 %28, label %29, label %48

29:                                               ; preds = %19
  %30 = load i32, ptr %7, align 4
  %31 = getelementptr inbounds %class.GenerateOopMap, ptr %10, i32 0, i32 17
  %32 = load ptr, ptr %31, align 8
  %33 = load i32, ptr %9, align 4
  %34 = sext i32 %33 to i64
  %35 = getelementptr inbounds %class.BasicBlock, ptr %32, i64 %34
  %36 = getelementptr inbounds %class.BasicBlock, ptr %35, i32 0, i32 1
  %37 = load i32, ptr %36, align 4
  %38 = add nsw i32 %37, %30
  store i32 %38, ptr %36, align 4
  %39 = load i32, ptr %7, align 4
  %40 = getelementptr inbounds %class.GenerateOopMap, ptr %10, i32 0, i32 17
  %41 = load ptr, ptr %40, align 8
  %42 = load i32, ptr %9, align 4
  %43 = sext i32 %42 to i64
  %44 = getelementptr inbounds %class.BasicBlock, ptr %41, i64 %43
  %45 = getelementptr inbounds %class.BasicBlock, ptr %44, i32 0, i32 2
  %46 = load i32, ptr %45, align 8
  %47 = add nsw i32 %46, %39
  store i32 %47, ptr %45, align 8
  br label %48

48:                                               ; preds = %29, %19
  %49 = getelementptr inbounds %class.GenerateOopMap, ptr %10, i32 0, i32 20
  %50 = getelementptr inbounds %class.GenerateOopMap, ptr %10, i32 0, i32 17
  %51 = load ptr, ptr %50, align 8
  %52 = load i32, ptr %9, align 4
  %53 = sext i32 %52 to i64
  %54 = getelementptr inbounds %class.BasicBlock, ptr %51, i64 %53
  %55 = getelementptr inbounds %class.BasicBlock, ptr %54, i32 0, i32 1
  %56 = load i32, ptr %55, align 4
  %57 = sext i32 %56 to i64
  call void @_ZN6BitMap6at_putEmb(ptr noundef nonnull align 8 dereferenceable(16) %49, i64 noundef %57, i1 noundef zeroext true)
  br label %58

58:                                               ; preds = %48
  %59 = load i32, ptr %9, align 4
  %60 = add nsw i32 %59, 1
  store i32 %60, ptr %9, align 4
  br label %14, !llvm.loop !32

61:                                               ; preds = %14
  ret void
}