; Function Attrs: mustprogress nounwind uwtable
define hidden void @_ZN14GenerateOopMap19update_basic_blocksEiii(ptr noundef nonnull align 8 dereferenceable(176) %0, i32 noundef %1, i32 noundef %2, i32 noundef %3) local_unnamed_addr #0 align 2 {
  %5 = getelementptr inbounds i8, ptr %0, i64 112
  %6 = sext i32 %3 to i64
  tail call void @_ZN14GrowableBitMapI14ResourceBitMapE12reinitializeEmb(ptr noundef nonnull align 8 dereferenceable(16) %5, i64 noundef %6, i1 noundef zeroext true) #18
  %7 = getelementptr inbounds i8, ptr %0, i64 108
  %8 = load i32, ptr %7, align 4
  %9 = icmp sgt i32 %8, 0
  br i1 %9, label %.lr.ph, label %._crit_edge

.lr.ph:                                           ; preds = %4
  %10 = getelementptr inbounds i8, ptr %0, i64 96
  br label %11

11:                                               ; preds = %.lr.ph, %22
  %indvars.iv = phi i64 [ 0, %.lr.ph ], [ %indvars.iv.next, %22 ]
  %12 = load ptr, ptr %10, align 8
  %13 = getelementptr inbounds %class.BasicBlock, ptr %12, i64 %indvars.iv, i32 1
  %14 = load i32, ptr %13, align 4
  %15 = icmp sgt i32 %14, %1
  br i1 %15, label %16, label %22

16:                                               ; preds = %11
  %17 = add nsw i32 %14, %2
  store i32 %17, ptr %13, align 4
  %18 = load ptr, ptr %10, align 8
  %19 = getelementptr inbounds %class.BasicBlock, ptr %18, i64 %indvars.iv, i32 2
  %20 = load i32, ptr %19, align 8
  %21 = add nsw i32 %20, %2
  store i32 %21, ptr %19, align 8
  %.pre = load ptr, ptr %10, align 8
  %.phi.trans.insert = getelementptr inbounds %class.BasicBlock, ptr %.pre, i64 %indvars.iv, i32 1
  %.pre13 = load i32, ptr %.phi.trans.insert, align 4
  br label %22

22:                                               ; preds = %16, %11
  %23 = phi i32 [ %.pre13, %16 ], [ %14, %11 ]
  %24 = sext i32 %23 to i64
  tail call void @_ZN6BitMap6at_putEmb(ptr noundef nonnull align 8 dereferenceable(16) %5, i64 noundef %24, i1 noundef zeroext true) #18
  %indvars.iv.next = add nuw nsw i64 %indvars.iv, 1
  %25 = load i32, ptr %7, align 4
  %26 = sext i32 %25 to i64
  %27 = icmp slt i64 %indvars.iv.next, %26
  br i1 %27, label %11, label %._crit_edge, !llvm.loop !32

._crit_edge:                                      ; preds = %22, %4
  ret void
}